; Function Attrs: mustprogress uwtable
define internal noundef nonnull ptr @_ZNK7testing8internal30ValuesInIteratorRangeGeneratorIN12_GLOBAL__N_15ParamEE8Iterator7CurrentEv(ptr noundef nonnull align 8 captures(none) dereferenceable(32) %0) unnamed_addr #5 align 2 {
  %2 = getelementptr inbounds nuw i8, ptr %0, i64 24
  %.val = load ptr, ptr %2, align 8, !tbaa !81
  %3 = icmp eq ptr %.val, null
  br i1 %3, label %_ZNSt10unique_ptrIKN12_GLOBAL__N_15ParamESt14default_deleteIS2_EE5resetEPS2_.exit, label %6

_ZNSt10unique_ptrIKN12_GLOBAL__N_15ParamESt14default_deleteIS2_EE5resetEPS2_.exit: ; preds = %1
  %4 = tail call noalias noundef nonnull dereferenceable(32) ptr @_Znwm(i64 noundef 32) #41
  %5 = getelementptr inbounds nuw i8, ptr %0, i64 16
  %.val2 = load ptr, ptr %5, align 8, !tbaa !169
  tail call void @llvm.memcpy.p0.p0.i64(ptr noundef nonnull align 16 dereferenceable(32) %4, ptr noundef nonnull align 8 dereferenceable(32) %.val2, i64 32, i1 false), !tbaa.struct !170
  store ptr %4, ptr %2, align 8, !tbaa !81
  br label %6

6:                                                ; preds = %_ZNSt10unique_ptrIKN12_GLOBAL__N_15ParamESt14default_deleteIS2_EE5resetEPS2_.exit, %1
  %.val1 = phi ptr [ %4, %_ZNSt10unique_ptrIKN12_GLOBAL__N_15ParamESt14default_deleteIS2_EE5resetEPS2_.exit ], [ %.val, %1 ]
  ret ptr %.val1
}